; Function Attrs: nounwind uwtable
define ptr @l_tryFinally___rarg(ptr noundef %0, ptr noundef %1, ptr noundef %2, ptr noundef %3) #0 {
  tail call void @lean_inc_heartbeat() #5
  %5 = tail call noalias ptr @mi_malloc_small(i64 noundef 32) #5
  %6 = icmp eq ptr %5, null
  br i1 %6, label %7, label %lean_alloc_closure.exit

7:                                                ; preds = %4
  tail call void @lean_internal_panic_out_of_memory() #6
  unreachable

lean_alloc_closure.exit:                          ; preds = %4
  %8 = getelementptr inbounds nuw i8, ptr %5, i64 4
  store i32 1, ptr %5, align 4, !tbaa !4
  store i32 -184549344, ptr %8, align 4
  %9 = getelementptr inbounds nuw i8, ptr %5, i64 8
  store ptr @l_tryFinally___rarg___lambda__1___boxed, ptr %9, align 8, !tbaa !9
  %10 = getelementptr inbounds nuw i8, ptr %5, i64 16
  store i16 2, ptr %10, align 8, !tbaa !11
  %11 = getelementptr inbounds nuw i8, ptr %5, i64 18
  store i16 1, ptr %11, align 2, !tbaa !11
  %12 = getelementptr inbounds nuw i8, ptr %5, i64 24
  store ptr %3, ptr %12, align 8, !tbaa !9
  %13 = tail call ptr @lean_apply_4(ptr noundef %0, ptr noundef nonnull inttoptr (i64 1 to ptr), ptr noundef nonnull inttoptr (i64 1 to ptr), ptr noundef %2, ptr noundef nonnull %5) #5
  %14 = getelementptr inbounds nuw i8, ptr %1, i64 8
  %15 = load ptr, ptr %14, align 8, !tbaa !9
  %16 = ptrtoint ptr %15 to i64
  %17 = and i64 %16, 1
  %.not = icmp eq i64 %17, 0
  br i1 %.not, label %18, label %lean_inc.exit

18:                                               ; preds = %lean_alloc_closure.exit
  %.val.i = load i32, ptr %15, align 4, !tbaa !4
  %19 = icmp sgt i32 %.val.i, 0
  br i1 %19, label %20, label %22, !prof !13

20:                                               ; preds = %18
  %21 = add nuw i32 %.val.i, 1
  store i32 %21, ptr %15, align 4, !tbaa !4
  br label %lean_inc.exit

22:                                               ; preds = %18
  %.not.i12 = icmp eq i32 %.val.i, 0
  br i1 %.not.i12, label %lean_inc.exit, label %23

23:                                               ; preds = %22
  tail call void @lean_inc_ref_cold(ptr noundef nonnull %15) #5
  br label %lean_inc.exit

lean_inc.exit:                                    ; preds = %23, %22, %20, %lean_alloc_closure.exit
  %24 = ptrtoint ptr %1 to i64
  %25 = and i64 %24, 1
  %.not13 = icmp eq i64 %25, 0
  br i1 %.not13, label %26, label %lean_dec.exit

26:                                               ; preds = %lean_inc.exit
  %27 = load i32, ptr %1, align 4, !tbaa !4
  %28 = icmp sgt i32 %27, 1
  br i1 %28, label %29, label %31, !prof !13

29:                                               ; preds = %26
  %30 = add nsw i32 %27, -1
  store i32 %30, ptr %1, align 4, !tbaa !4
  br label %lean_dec.exit

31:                                               ; preds = %26
  %.not.i = icmp eq i32 %27, 0
  br i1 %.not.i, label %lean_dec.exit, label %32

32:                                               ; preds = %31
  tail call void @lean_dec_ref_cold(ptr noundef nonnull %1) #5
  br label %lean_dec.exit

lean_dec.exit:                                    ; preds = %32, %31, %29, %lean_inc.exit
  %33 = load ptr, ptr @l_tryFinally___rarg___closed__1, align 8, !tbaa !9
  %34 = tail call ptr @lean_apply_4(ptr noundef %15, ptr noundef nonnull inttoptr (i64 1 to ptr), ptr noundef nonnull inttoptr (i64 1 to ptr), ptr noundef %33, ptr noundef %13) #5
  ret ptr %34
}